target datalayout = "e-m:e-p270:32:32-p271:32:32-p272:64:64-i64:64-i128:128-f80:128-n8:16:32:64-S128"
target triple = "x86_64-pc-linux-gnu"

%struct._object = type { i64, ptr }
%class.ArgInfo = type <{ ptr, i8, i8, i8, i8, [4 x i8] }>
%"struct.(anonymous namespace)::SafeSeqItem" = type { ptr }
%"class.(anonymous namespace)::RefWrapper" = type { ptr }

@_Py_NoneStruct = external global %struct._object, align 8
@.str.83 = private unnamed_addr constant [67 x i8] c"Can't parse '%s'. Input argument doesn't provide sequence protocol\00", align 1
@.str.84 = private unnamed_addr constant [56 x i8] c"Can't parse '%s'. Expected sequence length %lu, got %lu\00", align 1
@.str.85 = private unnamed_addr constant [64 x i8] c"Can't parse '%s'. Sequence item with index %lu has a wrong type\00", align 1

; Function Attrs: mustprogress nounwind uwtable
define internal noundef nonnull align 4 dereferenceable(4) ptr @_ZN12_GLOBAL__N_110RefWrapperIiE3getEv(ptr noundef nonnull align 8 dereferenceable(8) %0) #5 align 2 {
  %2 = alloca ptr, align 8
  store ptr %0, ptr %2, align 8
  %3 = load ptr, ptr %2, align 8
  %4 = getelementptr inbounds %"class.(anonymous namespace)::RefWrapper", ptr %3, i32 0, i32 0
  %5 = load ptr, ptr %4, align 8
  ret ptr %5
}

; Function Attrs: mustprogress uwtable
define internal void @_ZN12_GLOBAL__N_111SafeSeqItemC2EP7_objectm(ptr noundef nonnull align 8 dereferenceable(8) %0, ptr noundef %1, i64 noundef %2) unnamed_addr #4 align 2 {
  %4 = alloca ptr, align 8
  %5 = alloca ptr, align 8
  %6 = alloca i64, align 8
  store ptr %0, ptr %4, align 8
  store ptr %1, ptr %5, align 8
  store i64 %2, ptr %6, align 8
  %7 = load ptr, ptr %4, align 8
  %8 = load ptr, ptr %5, align 8
  %9 = load i64, ptr %6, align 8
  %10 = call ptr @PySequence_GetItem(ptr noundef %8, i64 noundef %9)
  %11 = getelementptr inbounds %"struct.(anonymous namespace)::SafeSeqItem", ptr %7, i32 0, i32 0
  store ptr %10, ptr %11, align 8
  ret void
}

; Function Attrs: mustprogress uwtable
define internal noundef zeroext i1 @_ZN12_GLOBAL__N_113parseSequenceIiLm3EEEbP7_objectRAT0__NS_10RefWrapperIT_EERK7ArgInfo(ptr noundef %0, ptr noundef nonnull align 8 dereferenceable(24) %1, ptr noundef nonnull align 8 dereferenceable(12) %2) #4 personality ptr @__gxx_personality_v0 {
  %4 = alloca i1, align 1
  %5 = alloca ptr, align 8
  %6 = alloca ptr, align 8
  %7 = alloca ptr, align 8
  %8 = alloca i64, align 8
  %9 = alloca i64, align 8
  %10 = alloca %"struct.(anonymous namespace)::SafeSeqItem", align 8
  %11 = alloca ptr, align 8
  %12 = alloca i32, align 4
  %13 = alloca i32, align 4
  store ptr %0, ptr %5, align 8
  store ptr %1, ptr %6, align 8
  store ptr %2, ptr %7, align 8
  %14 = load ptr, ptr %5, align 8
  %15 = icmp ne ptr %14, null
  br i1 %15, label %16, label %19

16:                                               ; preds = %3
  %17 = load ptr, ptr %5, align 8
  %18 = icmp eq ptr %17, @_Py_NoneStruct
  br i1 %18, label %19, label %20

19:                                               ; preds = %16, %3
  store i1 true, ptr %4, align 1
  br label %75

20:                                               ; preds = %16
  %21 = load ptr, ptr %5, align 8
  %22 = call i32 @PySequence_Check(ptr noundef %21)
  %23 = icmp ne i32 %22, 0
  br i1 %23, label %29, label %24

24:                                               ; preds = %20
  %25 = load ptr, ptr %7, align 8
  %26 = getelementptr inbounds %class.ArgInfo, ptr %25, i32 0, i32 0
  %27 = load ptr, ptr %26, align 8
  %28 = call noundef i32 (ptr, ...) @_Z7failmsgPKcz(ptr noundef @.str.83, ptr noundef %27)
  store i1 false, ptr %4, align 1
  br label %75

29:                                               ; preds = %20
  %30 = load ptr, ptr %5, align 8
  %31 = call i64 @PySequence_Size(ptr noundef %30)
  store i64 %31, ptr %8, align 8
  %32 = load i64, ptr %8, align 8
  %33 = icmp ne i64 %32, 3
  br i1 %33, label %34, label %40

34:                                               ; preds = %29
  %35 = load ptr, ptr %7, align 8
  %36 = getelementptr inbounds %class.ArgInfo, ptr %35, i32 0, i32 0
  %37 = load ptr, ptr %36, align 8
  %38 = load i64, ptr %8, align 8
  %39 = call noundef i32 (ptr, ...) @_Z7failmsgPKcz(ptr noundef @.str.84, ptr noundef %37, i64 noundef 3, i64 noundef %38)
  store i1 false, ptr %4, align 1
  br label %75

40:                                               ; preds = %29
  store i64 0, ptr %9, align 8
  br label %41

41:                                               ; preds = %71, %40
  %42 = load i64, ptr %9, align 8
  %43 = icmp ult i64 %42, 3
  br i1 %43, label %44, label %74

44:                                               ; preds = %41
  %45 = load ptr, ptr %5, align 8
  %46 = load i64, ptr %9, align 8
  call void @_ZN12_GLOBAL__N_111SafeSeqItemC2EP7_objectm(ptr noundef nonnull align 8 dereferenceable(8) %10, ptr noundef %45, i64 noundef %46)
  %47 = getelementptr inbounds %"struct.(anonymous namespace)::SafeSeqItem", ptr %10, i32 0, i32 0
  %48 = load ptr, ptr %47, align 8
  %49 = load ptr, ptr %6, align 8
  %50 = load i64, ptr %9, align 8
  %51 = getelementptr inbounds [3 x %"class.(anonymous namespace)::RefWrapper"], ptr %49, i64 0, i64 %50
  %52 = call noundef nonnull align 4 dereferenceable(4) ptr @_ZN12_GLOBAL__N_110RefWrapperIiE3getEv(ptr noundef nonnull align 8 dereferenceable(8) %51) #3
  %53 = load ptr, ptr %7, align 8
  %54 = invoke noundef zeroext i1 @_Z11pyopencv_toIiEbP7_objectRT_RK7ArgInfo(ptr noundef %48, ptr noundef nonnull align 4 dereferenceable(4) %52, ptr noundef nonnull align 8 dereferenceable(12) %53)
          to label %55 unwind label %63

55:                                               ; preds = %44
  br i1 %54, label %67, label %56

56:                                               ; preds = %55
  %57 = load ptr, ptr %7, align 8
  %58 = getelementptr inbounds %class.ArgInfo, ptr %57, i32 0, i32 0
  %59 = load ptr, ptr %58, align 8
  %60 = load i64, ptr %9, align 8
  %61 = invoke noundef i32 (ptr, ...) @_Z7failmsgPKcz(ptr noundef @.str.85, ptr noundef %59, i64 noundef %60)
          to label %62 unwind label %63

62:                                               ; preds = %56
  store i1 false, ptr %4, align 1
  store i32 1, ptr %13, align 4
  br label %68

63:                                               ; preds = %56, %44
  %64 = landingpad { ptr, i32 }
          cleanup
  %65 = extractvalue { ptr, i32 } %64, 0
  store ptr %65, ptr %11, align 8
  %66 = extractvalue { ptr, i32 } %64, 1
  store i32 %66, ptr %12, align 4
  call void @_ZN12_GLOBAL__N_111SafeSeqItemD2Ev(ptr noundef nonnull align 8 dereferenceable(8) %10) #3
  br label %77

67:                                               ; preds = %55
  store i32 0, ptr %13, align 4
  br label %68

68:                                               ; preds = %67, %62
  call void @_ZN12_GLOBAL__N_111SafeSeqItemD2Ev(ptr noundef nonnull align 8 dereferenceable(8) %10) #3
  %69 = load i32, ptr %13, align 4
  switch i32 %69, label %82 [
    i32 0, label %70
    i32 1, label %75
  ]

70:                                               ; preds = %68
  br label %71

71:                                               ; preds = %70
  %72 = load i64, ptr %9, align 8
  %73 = add i64 %72, 1
  store i64 %73, ptr %9, align 8
  br label %41, !llvm.loop !17

74:                                               ; preds = %41
  store i1 true, ptr %4, align 1
  br label %75

75:                                               ; preds = %74, %68, %34, %24, %19
  %76 = load i1, ptr %4, align 1
  ret i1 %76

77:                                               ; preds = %63
  %78 = load ptr, ptr %11, align 8
  %79 = load i32, ptr %12, align 4
  %80 = insertvalue { ptr, i32 } poison, ptr %78, 0
  %81 = insertvalue { ptr, i32 } %80, i32 %79, 1
  resume { ptr, i32 } %81

82:                                               ; preds = %68
  unreachable
}